target datalayout = "e-m:e-p270:32:32-p271:32:32-p272:64:64-i64:64-i128:128-f80:128-n8:16:32:64-S128"
target triple = "x86_64-pc-linux-gnu"

%struct._generic_SUNMatrix = type { ptr, ptr, ptr }
%struct._SUNMatrixContent_Band = type { i64, i64, i64, i64, i64, i64, ptr, i64, ptr }

; Function Attrs: nounwind uwtable
define i32 @SUNMatZero_Band(ptr noundef %0) #0 {
  %2 = alloca ptr, align 8
  %3 = alloca ptr, align 8
  %4 = alloca i64, align 8
  %5 = alloca ptr, align 8
  store ptr %0, ptr %2, align 8, !tbaa !10
  call void @llvm.lifetime.start.p0(i64 8, ptr %3) #8
  %6 = load ptr, ptr %2, align 8, !tbaa !10
  %7 = getelementptr inbounds nuw %struct._generic_SUNMatrix, ptr %6, i32 0, i32 2
  %8 = load ptr, ptr %7, align 8, !tbaa !41
  store ptr %8, ptr %3, align 8, !tbaa !7
  call void @llvm.lifetime.start.p0(i64 8, ptr %4) #8
  call void @llvm.lifetime.start.p0(i64 8, ptr %5) #8
  %9 = load ptr, ptr %2, align 8, !tbaa !10
  %10 = getelementptr inbounds nuw %struct._generic_SUNMatrix, ptr %9, i32 0, i32 0
  %11 = load ptr, ptr %10, align 8, !tbaa !27
  %12 = getelementptr inbounds nuw %struct._SUNMatrixContent_Band, ptr %11, i32 0, i32 6
  %13 = load ptr, ptr %12, align 8, !tbaa !38
  store ptr %13, ptr %5, align 8, !tbaa !40
  store i64 0, ptr %4, align 8, !tbaa !3
  br label %14

14:                                               ; preds = %26, %1
  %15 = load i64, ptr %4, align 8, !tbaa !3
  %16 = load ptr, ptr %2, align 8, !tbaa !10
  %17 = getelementptr inbounds nuw %struct._generic_SUNMatrix, ptr %16, i32 0, i32 0
  %18 = load ptr, ptr %17, align 8, !tbaa !27
  %19 = getelementptr inbounds nuw %struct._SUNMatrixContent_Band, ptr %18, i32 0, i32 7
  %20 = load i64, ptr %19, align 8, !tbaa !37
  %21 = icmp slt i64 %15, %20
  br i1 %21, label %22, label %29

22:                                               ; preds = %14
  %23 = load ptr, ptr %5, align 8, !tbaa !40
  %24 = load i64, ptr %4, align 8, !tbaa !3
  %25 = getelementptr inbounds double, ptr %23, i64 %24
  store double 0.000000e+00, ptr %25, align 8, !tbaa !42
  br label %26

26:                                               ; preds = %22
  %27 = load i64, ptr %4, align 8, !tbaa !3
  %28 = add nsw i64 %27, 1
  store i64 %28, ptr %4, align 8, !tbaa !3
  br label %14

29:                                               ; preds = %14
  call void @llvm.lifetime.end.p0(i64 8, ptr %5) #8
  call void @llvm.lifetime.end.p0(i64 8, ptr %4) #8
  call void @llvm.lifetime.end.p0(i64 8, ptr %3) #8
  ret i32 0
}

; Function Attrs: nounwind uwtable
define i32 @SUNMatCopy_Band(ptr noundef %0, ptr noundef %1) #0 {
  %3 = alloca ptr, align 8
  %4 = alloca ptr, align 8
  %5 = alloca ptr, align 8
  %6 = alloca i64, align 8
  %7 = alloca i64, align 8
  %8 = alloca i64, align 8
  %9 = alloca i64, align 8
  %10 = alloca i64, align 8
  %11 = alloca i64, align 8
  %12 = alloca ptr, align 8
  %13 = alloca ptr, align 8
  store ptr %0, ptr %3, align 8, !tbaa !10
  store ptr %1, ptr %4, align 8, !tbaa !10
  call void @llvm.lifetime.start.p0(i64 8, ptr %5) #8
  %14 = load ptr, ptr %3, align 8, !tbaa !10
  %15 = getelementptr inbounds nuw %struct._generic_SUNMatrix, ptr %14, i32 0, i32 2
  %16 = load ptr, ptr %15, align 8, !tbaa !41
  store ptr %16, ptr %5, align 8, !tbaa !7
  call void @llvm.lifetime.start.p0(i64 8, ptr %6) #8
  call void @llvm.lifetime.start.p0(i64 8, ptr %7) #8
  call void @llvm.lifetime.start.p0(i64 8, ptr %8) #8
  call void @llvm.lifetime.start.p0(i64 8, ptr %9) #8
  call void @llvm.lifetime.start.p0(i64 8, ptr %10) #8
  call void @llvm.lifetime.start.p0(i64 8, ptr %11) #8
  call void @llvm.lifetime.start.p0(i64 8, ptr %12) #8
  call void @llvm.lifetime.start.p0(i64 8, ptr %13) #8
  %17 = load ptr, ptr %3, align 8, !tbaa !10
  %18 = getelementptr inbounds nuw %struct._generic_SUNMatrix, ptr %17, i32 0, i32 0
  %19 = load ptr, ptr %18, align 8, !tbaa !27
  %20 = getelementptr inbounds nuw %struct._SUNMatrixContent_Band, ptr %19, i32 0, i32 3
  %21 = load i64, ptr %20, align 8, !tbaa !33
  %22 = load ptr, ptr %4, align 8, !tbaa !10
  %23 = getelementptr inbounds nuw %struct._generic_SUNMatrix, ptr %22, i32 0, i32 0
  %24 = load ptr, ptr %23, align 8, !tbaa !27
  %25 = getelementptr inbounds nuw %struct._SUNMatrixContent_Band, ptr %24, i32 0, i32 3
  %26 = load i64, ptr %25, align 8, !tbaa !33
  %27 = icmp sgt i64 %21, %26
  br i1 %27, label %40, label %28

28:                                               ; preds = %2
  %29 = load ptr, ptr %3, align 8, !tbaa !10
  %30 = getelementptr inbounds nuw %struct._generic_SUNMatrix, ptr %29, i32 0, i32 0
  %31 = load ptr, ptr %30, align 8, !tbaa !27
  %32 = getelementptr inbounds nuw %struct._SUNMatrixContent_Band, ptr %31, i32 0, i32 4
  %33 = load i64, ptr %32, align 8, !tbaa !34
  %34 = load ptr, ptr %4, align 8, !tbaa !10
  %35 = getelementptr inbounds nuw %struct._generic_SUNMatrix, ptr %34, i32 0, i32 0
  %36 = load ptr, ptr %35, align 8, !tbaa !27
  %37 = getelementptr inbounds nuw %struct._SUNMatrixContent_Band, ptr %36, i32 0, i32 4
  %38 = load i64, ptr %37, align 8, !tbaa !34
  %39 = icmp sgt i64 %33, %38
  br i1 %39, label %40, label %198

40:                                               ; preds = %28, %2
  %41 = load ptr, ptr %4, align 8, !tbaa !10
  %42 = getelementptr inbounds nuw %struct._generic_SUNMatrix, ptr %41, i32 0, i32 0
  %43 = load ptr, ptr %42, align 8, !tbaa !27
  %44 = getelementptr inbounds nuw %struct._SUNMatrixContent_Band, ptr %43, i32 0, i32 4
  %45 = load i64, ptr %44, align 8, !tbaa !34
  %46 = load ptr, ptr %3, align 8, !tbaa !10
  %47 = getelementptr inbounds nuw %struct._generic_SUNMatrix, ptr %46, i32 0, i32 0
  %48 = load ptr, ptr %47, align 8, !tbaa !27
  %49 = getelementptr inbounds nuw %struct._SUNMatrixContent_Band, ptr %48, i32 0, i32 4
  %50 = load i64, ptr %49, align 8, !tbaa !34
  %51 = icmp sgt i64 %45, %50
  br i1 %51, label %52, label %58

52:                                               ; preds = %40
  %53 = load ptr, ptr %4, align 8, !tbaa !10
  %54 = getelementptr inbounds nuw %struct._generic_SUNMatrix, ptr %53, i32 0, i32 0
  %55 = load ptr, ptr %54, align 8, !tbaa !27
  %56 = getelementptr inbounds nuw %struct._SUNMatrixContent_Band, ptr %55, i32 0, i32 4
  %57 = load i64, ptr %56, align 8, !tbaa !34
  br label %64

58:                                               ; preds = %40
  %59 = load ptr, ptr %3, align 8, !tbaa !10
  %60 = getelementptr inbounds nuw %struct._generic_SUNMatrix, ptr %59, i32 0, i32 0
  %61 = load ptr, ptr %60, align 8, !tbaa !27
  %62 = getelementptr inbounds nuw %struct._SUNMatrixContent_Band, ptr %61, i32 0, i32 4
  %63 = load i64, ptr %62, align 8, !tbaa !34
  br label %64

64:                                               ; preds = %58, %52
  %65 = phi i64 [ %57, %52 ], [ %63, %58 ]
  store i64 %65, ptr %9, align 8, !tbaa !3
  %66 = load ptr, ptr %4, align 8, !tbaa !10
  %67 = getelementptr inbounds nuw %struct._generic_SUNMatrix, ptr %66, i32 0, i32 0
  %68 = load ptr, ptr %67, align 8, !tbaa !27
  %69 = getelementptr inbounds nuw %struct._SUNMatrixContent_Band, ptr %68, i32 0, i32 3
  %70 = load i64, ptr %69, align 8, !tbaa !33
  %71 = load ptr, ptr %3, align 8, !tbaa !10
  %72 = getelementptr inbounds nuw %struct._generic_SUNMatrix, ptr %71, i32 0, i32 0
  %73 = load ptr, ptr %72, align 8, !tbaa !27
  %74 = getelementptr inbounds nuw %struct._SUNMatrixContent_Band, ptr %73, i32 0, i32 3
  %75 = load i64, ptr %74, align 8, !tbaa !33
  %76 = icmp sgt i64 %70, %75
  br i1 %76, label %77, label %83

77:                                               ; preds = %64
  %78 = load ptr, ptr %4, align 8, !tbaa !10
  %79 = getelementptr inbounds nuw %struct._generic_SUNMatrix, ptr %78, i32 0, i32 0
  %80 = load ptr, ptr %79, align 8, !tbaa !27
  %81 = getelementptr inbounds nuw %struct._SUNMatrixContent_Band, ptr %80, i32 0, i32 3
  %82 = load i64, ptr %81, align 8, !tbaa !33
  br label %89

83:                                               ; preds = %64
  %84 = load ptr, ptr %3, align 8, !tbaa !10
  %85 = getelementptr inbounds nuw %struct._generic_SUNMatrix, ptr %84, i32 0, i32 0
  %86 = load ptr, ptr %85, align 8, !tbaa !27
  %87 = getelementptr inbounds nuw %struct._SUNMatrixContent_Band, ptr %86, i32 0, i32 3
  %88 = load i64, ptr %87, align 8, !tbaa !33
  br label %89

89:                                               ; preds = %83, %77
  %90 = phi i64 [ %82, %77 ], [ %88, %83 ]
  store i64 %90, ptr %10, align 8, !tbaa !3
  %91 = load ptr, ptr %4, align 8, !tbaa !10
  %92 = getelementptr inbounds nuw %struct._generic_SUNMatrix, ptr %91, i32 0, i32 0
  %93 = load ptr, ptr %92, align 8, !tbaa !27
  %94 = getelementptr inbounds nuw %struct._SUNMatrixContent_Band, ptr %93, i32 0, i32 5
  %95 = load i64, ptr %94, align 8, !tbaa !35
  %96 = load ptr, ptr %3, align 8, !tbaa !10
  %97 = getelementptr inbounds nuw %struct._generic_SUNMatrix, ptr %96, i32 0, i32 0
  %98 = load ptr, ptr %97, align 8, !tbaa !27
  %99 = getelementptr inbounds nuw %struct._SUNMatrixContent_Band, ptr %98, i32 0, i32 5
  %100 = load i64, ptr %99, align 8, !tbaa !35
  %101 = icmp sgt i64 %95, %100
  br i1 %101, label %102, label %108

102:                                              ; preds = %89
  %103 = load ptr, ptr %4, align 8, !tbaa !10
  %104 = getelementptr inbounds nuw %struct._generic_SUNMatrix, ptr %103, i32 0, i32 0
  %105 = load ptr, ptr %104, align 8, !tbaa !27
  %106 = getelementptr inbounds nuw %struct._SUNMatrixContent_Band, ptr %105, i32 0, i32 5
  %107 = load i64, ptr %106, align 8, !tbaa !35
  br label %114

108:                                              ; preds = %89
  %109 = load ptr, ptr %3, align 8, !tbaa !10
  %110 = getelementptr inbounds nuw %struct._generic_SUNMatrix, ptr %109, i32 0, i32 0
  %111 = load ptr, ptr %110, align 8, !tbaa !27
  %112 = getelementptr inbounds nuw %struct._SUNMatrixContent_Band, ptr %111, i32 0, i32 5
  %113 = load i64, ptr %112, align 8, !tbaa !35
  br label %114

114:                                              ; preds = %108, %102
  %115 = phi i64 [ %107, %102 ], [ %113, %108 ]
  store i64 %115, ptr %11, align 8, !tbaa !3
  %116 = load i64, ptr %11, align 8, !tbaa !3
  %117 = load i64, ptr %9, align 8, !tbaa !3
  %118 = add nsw i64 %116, %117
  %119 = add nsw i64 %118, 1
  store i64 %119, ptr %8, align 8, !tbaa !3
  %120 = load i64, ptr %10, align 8, !tbaa !3
  %121 = load ptr, ptr %4, align 8, !tbaa !10
  %122 = getelementptr inbounds nuw %struct._generic_SUNMatrix, ptr %121, i32 0, i32 0
  %123 = load ptr, ptr %122, align 8, !tbaa !27
  %124 = getelementptr inbounds nuw %struct._SUNMatrixContent_Band, ptr %123, i32 0, i32 3
  store i64 %120, ptr %124, align 8, !tbaa !33
  %125 = load i64, ptr %9, align 8, !tbaa !3
  %126 = load ptr, ptr %4, align 8, !tbaa !10
  %127 = getelementptr inbounds nuw %struct._generic_SUNMatrix, ptr %126, i32 0, i32 0
  %128 = load ptr, ptr %127, align 8, !tbaa !27
  %129 = getelementptr inbounds nuw %struct._SUNMatrixContent_Band, ptr %128, i32 0, i32 4
  store i64 %125, ptr %129, align 8, !tbaa !34
  %130 = load i64, ptr %11, align 8, !tbaa !3
  %131 = load ptr, ptr %4, align 8, !tbaa !10
  %132 = getelementptr inbounds nuw %struct._generic_SUNMatrix, ptr %131, i32 0, i32 0
  %133 = load ptr, ptr %132, align 8, !tbaa !27
  %134 = getelementptr inbounds nuw %struct._SUNMatrixContent_Band, ptr %133, i32 0, i32 5
  store i64 %130, ptr %134, align 8, !tbaa !35
  %135 = load i64, ptr %8, align 8, !tbaa !3
  %136 = load ptr, ptr %4, align 8, !tbaa !10
  %137 = getelementptr inbounds nuw %struct._generic_SUNMatrix, ptr %136, i32 0, i32 0
  %138 = load ptr, ptr %137, align 8, !tbaa !27
  %139 = getelementptr inbounds nuw %struct._SUNMatrixContent_Band, ptr %138, i32 0, i32 2
  store i64 %135, ptr %139, align 8, !tbaa !36
  %140 = load ptr, ptr %4, align 8, !tbaa !10
  %141 = getelementptr inbounds nuw %struct._generic_SUNMatrix, ptr %140, i32 0, i32 0
  %142 = load ptr, ptr %141, align 8, !tbaa !27
  %143 = getelementptr inbounds nuw %struct._SUNMatrixContent_Band, ptr %142, i32 0, i32 1
  %144 = load i64, ptr %143, align 8, !tbaa !32
  %145 = load i64, ptr %8, align 8, !tbaa !3
  %146 = mul nsw i64 %144, %145
  %147 = load ptr, ptr %4, align 8, !tbaa !10
  %148 = getelementptr inbounds nuw %struct._generic_SUNMatrix, ptr %147, i32 0, i32 0
  %149 = load ptr, ptr %148, align 8, !tbaa !27
  %150 = getelementptr inbounds nuw %struct._SUNMatrixContent_Band, ptr %149, i32 0, i32 7
  store i64 %146, ptr %150, align 8, !tbaa !37
  %151 = load ptr, ptr %4, align 8, !tbaa !10
  %152 = getelementptr inbounds nuw %struct._generic_SUNMatrix, ptr %151, i32 0, i32 0
  %153 = load ptr, ptr %152, align 8, !tbaa !27
  %154 = getelementptr inbounds nuw %struct._SUNMatrixContent_Band, ptr %153, i32 0, i32 6
  %155 = load ptr, ptr %154, align 8, !tbaa !38
  %156 = load ptr, ptr %4, align 8, !tbaa !10
  %157 = getelementptr inbounds nuw %struct._generic_SUNMatrix, ptr %156, i32 0, i32 0
  %158 = load ptr, ptr %157, align 8, !tbaa !27
  %159 = getelementptr inbounds nuw %struct._SUNMatrixContent_Band, ptr %158, i32 0, i32 1
  %160 = load i64, ptr %159, align 8, !tbaa !32
  %161 = load i64, ptr %8, align 8, !tbaa !3
  %162 = mul nsw i64 %160, %161
  %163 = mul i64 %162, 8
  %164 = call ptr @realloc(ptr noundef %155, i64 noundef %163) #11
  %165 = load ptr, ptr %4, align 8, !tbaa !10
  %166 = getelementptr inbounds nuw %struct._generic_SUNMatrix, ptr %165, i32 0, i32 0
  %167 = load ptr, ptr %166, align 8, !tbaa !27
  %168 = getelementptr inbounds nuw %struct._SUNMatrixContent_Band, ptr %167, i32 0, i32 6
  store ptr %164, ptr %168, align 8, !tbaa !38
  store i64 0, ptr %7, align 8, !tbaa !3
  br label %169

169:                                              ; preds = %194, %114
  %170 = load i64, ptr %7, align 8, !tbaa !3
  %171 = load ptr, ptr %4, align 8, !tbaa !10
  %172 = getelementptr inbounds nuw %struct._generic_SUNMatrix, ptr %171, i32 0, i32 0
  %173 = load ptr, ptr %172, align 8, !tbaa !27
  %174 = getelementptr inbounds nuw %struct._SUNMatrixContent_Band, ptr %173, i32 0, i32 1
  %175 = load i64, ptr %174, align 8, !tbaa !32
  %176 = icmp slt i64 %170, %175
  br i1 %176, label %177, label %197

177:                                              ; preds = %169
  %178 = load ptr, ptr %4, align 8, !tbaa !10
  %179 = getelementptr inbounds nuw %struct._generic_SUNMatrix, ptr %178, i32 0, i32 0
  %180 = load ptr, ptr %179, align 8, !tbaa !27
  %181 = getelementptr inbounds nuw %struct._SUNMatrixContent_Band, ptr %180, i32 0, i32 6
  %182 = load ptr, ptr %181, align 8, !tbaa !38
  %183 = load i64, ptr %7, align 8, !tbaa !3
  %184 = load i64, ptr %8, align 8, !tbaa !3
  %185 = mul nsw i64 %183, %184
  %186 = getelementptr inbounds double, ptr %182, i64 %185
  %187 = load ptr, ptr %4, align 8, !tbaa !10
  %188 = getelementptr inbounds nuw %struct._generic_SUNMatrix, ptr %187, i32 0, i32 0
  %189 = load ptr, ptr %188, align 8, !tbaa !27
  %190 = getelementptr inbounds nuw %struct._SUNMatrixContent_Band, ptr %189, i32 0, i32 8
  %191 = load ptr, ptr %190, align 8, !tbaa !39
  %192 = load i64, ptr %7, align 8, !tbaa !3
  %193 = getelementptr inbounds ptr, ptr %191, i64 %192
  store ptr %186, ptr %193, align 8, !tbaa !40
  br label %194

194:                                              ; preds = %177
  %195 = load i64, ptr %7, align 8, !tbaa !3
  %196 = add nsw i64 %195, 1
  store i64 %196, ptr %7, align 8, !tbaa !3
  br label %169

197:                                              ; preds = %169
  br label %198

198:                                              ; preds = %197, %28
  %199 = load ptr, ptr %4, align 8, !tbaa !10
  %200 = call i32 @SUNMatZero_Band(ptr noundef %199)
  store i64 0, ptr %7, align 8, !tbaa !3
  br label %201

201:                                              ; preds = %264, %198
  %202 = load i64, ptr %7, align 8, !tbaa !3
  %203 = load ptr, ptr %4, align 8, !tbaa !10
  %204 = getelementptr inbounds nuw %struct._generic_SUNMatrix, ptr %203, i32 0, i32 0
  %205 = load ptr, ptr %204, align 8, !tbaa !27
  %206 = getelementptr inbounds nuw %struct._SUNMatrixContent_Band, ptr %205, i32 0, i32 1
  %207 = load i64, ptr %206, align 8, !tbaa !32
  %208 = icmp slt i64 %202, %207
  br i1 %208, label %209, label %267

209:                                              ; preds = %201
  %210 = load ptr, ptr %4, align 8, !tbaa !10
  %211 = getelementptr inbounds nuw %struct._generic_SUNMatrix, ptr %210, i32 0, i32 0
  %212 = load ptr, ptr %211, align 8, !tbaa !27
  %213 = getelementptr inbounds nuw %struct._SUNMatrixContent_Band, ptr %212, i32 0, i32 8
  %214 = load ptr, ptr %213, align 8, !tbaa !39
  %215 = load i64, ptr %7, align 8, !tbaa !3
  %216 = getelementptr inbounds ptr, ptr %214, i64 %215
  %217 = load ptr, ptr %216, align 8, !tbaa !40
  %218 = load ptr, ptr %4, align 8, !tbaa !10
  %219 = getelementptr inbounds nuw %struct._generic_SUNMatrix, ptr %218, i32 0, i32 0
  %220 = load ptr, ptr %219, align 8, !tbaa !27
  %221 = getelementptr inbounds nuw %struct._SUNMatrixContent_Band, ptr %220, i32 0, i32 5
  %222 = load i64, ptr %221, align 8, !tbaa !35
  %223 = getelementptr inbounds double, ptr %217, i64 %222
  store ptr %223, ptr %13, align 8, !tbaa !40
  %224 = load ptr, ptr %3, align 8, !tbaa !10
  %225 = getelementptr inbounds nuw %struct._generic_SUNMatrix, ptr %224, i32 0, i32 0
  %226 = load ptr, ptr %225, align 8, !tbaa !27
  %227 = getelementptr inbounds nuw %struct._SUNMatrixContent_Band, ptr %226, i32 0, i32 8
  %228 = load ptr, ptr %227, align 8, !tbaa !39
  %229 = load i64, ptr %7, align 8, !tbaa !3
  %230 = getelementptr inbounds ptr, ptr %228, i64 %229
  %231 = load ptr, ptr %230, align 8, !tbaa !40
  %232 = load ptr, ptr %3, align 8, !tbaa !10
  %233 = getelementptr inbounds nuw %struct._generic_SUNMatrix, ptr %232, i32 0, i32 0
  %234 = load ptr, ptr %233, align 8, !tbaa !27
  %235 = getelementptr inbounds nuw %struct._SUNMatrixContent_Band, ptr %234, i32 0, i32 5
  %236 = load i64, ptr %235, align 8, !tbaa !35
  %237 = getelementptr inbounds double, ptr %231, i64 %236
  store ptr %237, ptr %12, align 8, !tbaa !40
  %238 = load ptr, ptr %3, align 8, !tbaa !10
  %239 = getelementptr inbounds nuw %struct._generic_SUNMatrix, ptr %238, i32 0, i32 0
  %240 = load ptr, ptr %239, align 8, !tbaa !27
  %241 = getelementptr inbounds nuw %struct._SUNMatrixContent_Band, ptr %240, i32 0, i32 3
  %242 = load i64, ptr %241, align 8, !tbaa !33
  %243 = sub nsw i64 0, %242
  store i64 %243, ptr %6, align 8, !tbaa !3
  br label %244

244:                                              ; preds = %260, %209
  %245 = load i64, ptr %6, align 8, !tbaa !3
  %246 = load ptr, ptr %3, align 8, !tbaa !10
  %247 = getelementptr inbounds nuw %struct._generic_SUNMatrix, ptr %246, i32 0, i32 0
  %248 = load ptr, ptr %247, align 8, !tbaa !27
  %249 = getelementptr inbounds nuw %struct._SUNMatrixContent_Band, ptr %248, i32 0, i32 4
  %250 = load i64, ptr %249, align 8, !tbaa !34
  %251 = icmp sle i64 %245, %250
  br i1 %251, label %252, label %263

252:                                              ; preds = %244
  %253 = load ptr, ptr %12, align 8, !tbaa !40
  %254 = load i64, ptr %6, align 8, !tbaa !3
  %255 = getelementptr inbounds double, ptr %253, i64 %254
  %256 = load double, ptr %255, align 8, !tbaa !42
  %257 = load ptr, ptr %13, align 8, !tbaa !40
  %258 = load i64, ptr %6, align 8, !tbaa !3
  %259 = getelementptr inbounds double, ptr %257, i64 %258
  store double %256, ptr %259, align 8, !tbaa !42
  br label %260

260:                                              ; preds = %252
  %261 = load i64, ptr %6, align 8, !tbaa !3
  %262 = add nsw i64 %261, 1
  store i64 %262, ptr %6, align 8, !tbaa !3
  br label %244

263:                                              ; preds = %244
  br label %264

264:                                              ; preds = %263
  %265 = load i64, ptr %7, align 8, !tbaa !3
  %266 = add nsw i64 %265, 1
  store i64 %266, ptr %7, align 8, !tbaa !3
  br label %201

267:                                              ; preds = %201
  call void @llvm.lifetime.end.p0(i64 8, ptr %13) #8
  call void @llvm.lifetime.end.p0(i64 8, ptr %12) #8
  call void @llvm.lifetime.end.p0(i64 8, ptr %11) #8
  call void @llvm.lifetime.end.p0(i64 8, ptr %10) #8
  call void @llvm.lifetime.end.p0(i64 8, ptr %9) #8
  call void @llvm.lifetime.end.p0(i64 8, ptr %8) #8
  call void @llvm.lifetime.end.p0(i64 8, ptr %7) #8
  call void @llvm.lifetime.end.p0(i64 8, ptr %6) #8
  call void @llvm.lifetime.end.p0(i64 8, ptr %5) #8
  ret i32 0
}