; Function Attrs: nounwind uwtable
define noundef i32 @SUNMatCopy_Band(ptr noundef readonly captures(none) %0, ptr noundef readonly captures(none) %1) #0 {
  %3 = load ptr, ptr %0, align 8, !tbaa !20
  %4 = getelementptr inbounds nuw i8, ptr %3, i64 24
  %5 = load i64, ptr %4, align 8, !tbaa !27
  %6 = load ptr, ptr %1, align 8, !tbaa !20
  %7 = getelementptr inbounds nuw i8, ptr %6, i64 24
  %8 = load i64, ptr %7, align 8, !tbaa !27
  %9 = icmp sgt i64 %5, %8
  br i1 %9, label %._crit_edge77, label %10

._crit_edge77:                                    ; preds = %2
  %.phi.trans.insert = getelementptr inbounds nuw i8, ptr %6, i64 32
  %.pre = load i64, ptr %.phi.trans.insert, align 8, !tbaa !28
  %.phi.trans.insert78 = getelementptr inbounds nuw i8, ptr %3, i64 32
  %.pre79 = load i64, ptr %.phi.trans.insert78, align 8, !tbaa !28
  br label %16

10:                                               ; preds = %2
  %11 = getelementptr inbounds nuw i8, ptr %3, i64 32
  %12 = load i64, ptr %11, align 8, !tbaa !28
  %13 = getelementptr inbounds nuw i8, ptr %6, i64 32
  %14 = load i64, ptr %13, align 8, !tbaa !28
  %15 = icmp sgt i64 %12, %14
  br i1 %15, label %16, label %.loopexit

16:                                               ; preds = %._crit_edge77, %10
  %17 = phi i64 [ %.pre79, %._crit_edge77 ], [ %12, %10 ]
  %18 = phi i64 [ %.pre, %._crit_edge77 ], [ %14, %10 ]
  %19 = getelementptr inbounds nuw i8, ptr %6, i64 32
  %. = tail call i64 @llvm.smax.i64(i64 %18, i64 %17)
  %20 = tail call i64 @llvm.smax.i64(i64 %8, i64 %5)
  %21 = getelementptr inbounds nuw i8, ptr %6, i64 40
  %22 = load i64, ptr %21, align 8, !tbaa !29
  %23 = getelementptr inbounds nuw i8, ptr %3, i64 40
  %24 = load i64, ptr %23, align 8, !tbaa !29
  %25 = tail call i64 @llvm.smax.i64(i64 %22, i64 %24)
  %26 = add i64 %., 1
  %27 = add i64 %26, %25
  store i64 %20, ptr %7, align 8, !tbaa !27
  store i64 %., ptr %19, align 8, !tbaa !28
  store i64 %25, ptr %21, align 8, !tbaa !29
  %28 = getelementptr inbounds nuw i8, ptr %6, i64 16
  store i64 %27, ptr %28, align 8, !tbaa !30
  %29 = getelementptr inbounds nuw i8, ptr %6, i64 8
  %30 = load i64, ptr %29, align 8, !tbaa !26
  %31 = mul nsw i64 %30, %27
  %32 = getelementptr inbounds nuw i8, ptr %6, i64 56
  store i64 %31, ptr %32, align 8, !tbaa !31
  %33 = getelementptr inbounds nuw i8, ptr %6, i64 48
  %34 = load ptr, ptr %33, align 8, !tbaa !32
  %35 = shl i64 %31, 3
  %36 = tail call ptr @realloc(ptr noundef %34, i64 noundef %35) #21
  %37 = load ptr, ptr %1, align 8, !tbaa !20
  %38 = getelementptr inbounds nuw i8, ptr %37, i64 48
  store ptr %36, ptr %38, align 8, !tbaa !32
  %39 = getelementptr inbounds nuw i8, ptr %37, i64 8
  %40 = load i64, ptr %39, align 8, !tbaa !26
  %41 = icmp sgt i64 %40, 0
  br i1 %41, label %.lr.ph, label %.loopexit

.lr.ph:                                           ; preds = %16
  %42 = getelementptr inbounds nuw i8, ptr %37, i64 64
  %43 = load ptr, ptr %42, align 8, !tbaa !33
  br label %44

44:                                               ; preds = %.lr.ph, %44
  %.05966 = phi i64 [ 0, %.lr.ph ], [ %49, %44 ]
  %45 = load ptr, ptr %38, align 8, !tbaa !32
  %46 = mul nsw i64 %.05966, %27
  %47 = getelementptr inbounds double, ptr %45, i64 %46
  %48 = getelementptr inbounds nuw ptr, ptr %43, i64 %.05966
  store ptr %47, ptr %48, align 8, !tbaa !34
  %49 = add nuw nsw i64 %.05966, 1
  %exitcond.not = icmp eq i64 %49, %40
  br i1 %exitcond.not, label %.loopexit, label %44

.loopexit:                                        ; preds = %44, %16, %10
  %50 = phi ptr [ %37, %16 ], [ %6, %10 ], [ %37, %44 ]
  %51 = getelementptr inbounds nuw i8, ptr %50, i64 56
  %52 = load i64, ptr %51, align 8, !tbaa !31
  %53 = icmp sgt i64 %52, 0
  br i1 %53, label %.lr.ph.preheader.i, label %SUNMatZero_Band.exit

.lr.ph.preheader.i:                               ; preds = %.loopexit
  %54 = getelementptr inbounds nuw i8, ptr %50, i64 48
  %55 = load ptr, ptr %54, align 8, !tbaa !32
  %56 = shl nuw i64 %52, 3
  tail call void @llvm.memset.p0.i64(ptr align 8 %55, i8 0, i64 %56, i1 false), !tbaa !36
  br label %SUNMatZero_Band.exit

SUNMatZero_Band.exit:                             ; preds = %.loopexit, %.lr.ph.preheader.i
  %57 = getelementptr inbounds nuw i8, ptr %50, i64 8
  %58 = load i64, ptr %57, align 8, !tbaa !26
  %59 = icmp sgt i64 %58, 0
  br i1 %59, label %.lr.ph71, label %._crit_edge72

.lr.ph71:                                         ; preds = %SUNMatZero_Band.exit
  %60 = getelementptr inbounds nuw i8, ptr %50, i64 64
  %61 = load ptr, ptr %60, align 8, !tbaa !33
  %62 = getelementptr inbounds nuw i8, ptr %50, i64 40
  %63 = load i64, ptr %62, align 8, !tbaa !29
  %64 = load ptr, ptr %0, align 8, !tbaa !20
  %65 = getelementptr inbounds nuw i8, ptr %64, i64 64
  %66 = load ptr, ptr %65, align 8, !tbaa !33
  %67 = getelementptr inbounds nuw i8, ptr %64, i64 40
  %68 = load i64, ptr %67, align 8, !tbaa !29
  %69 = getelementptr inbounds nuw i8, ptr %64, i64 24
  %70 = load i64, ptr %69, align 8, !tbaa !27
  %71 = sub nsw i64 0, %70
  %72 = getelementptr inbounds nuw i8, ptr %64, i64 32
  %73 = load i64, ptr %72, align 8, !tbaa !28
  %.not67 = icmp slt i64 %73, %71
  br i1 %.not67, label %._crit_edge72, label %.lr.ph69

.lr.ph69:                                         ; preds = %.lr.ph71, %._crit_edge
  %.170 = phi i64 [ %85, %._crit_edge ], [ 0, %.lr.ph71 ]
  %74 = getelementptr inbounds nuw ptr, ptr %61, i64 %.170
  %75 = load ptr, ptr %74, align 8, !tbaa !34
  %76 = getelementptr inbounds double, ptr %75, i64 %63
  %77 = getelementptr inbounds nuw ptr, ptr %66, i64 %.170
  %78 = load ptr, ptr %77, align 8, !tbaa !34
  %79 = getelementptr inbounds double, ptr %78, i64 %68
  br label %80

80:                                               ; preds = %.lr.ph69, %80
  %.068 = phi i64 [ %71, %.lr.ph69 ], [ %84, %80 ]
  %81 = getelementptr inbounds double, ptr %79, i64 %.068
  %82 = load double, ptr %81, align 8, !tbaa !36
  %83 = getelementptr inbounds double, ptr %76, i64 %.068
  store double %82, ptr %83, align 8, !tbaa !36
  %84 = add i64 %.068, 1
  %exitcond75.not = icmp eq i64 %.068, %73
  br i1 %exitcond75.not, label %._crit_edge, label %80

._crit_edge:                                      ; preds = %80
  %85 = add nuw nsw i64 %.170, 1
  %exitcond76.not = icmp eq i64 %85, %58
  br i1 %exitcond76.not, label %._crit_edge72, label %.lr.ph69

._crit_edge72:                                    ; preds = %._crit_edge, %.lr.ph71, %SUNMatZero_Band.exit
  ret i32 0
}